target datalayout = "e-m:e-p270:32:32-p271:32:32-p272:64:64-i64:64-i128:128-f80:128-n8:16:32:64-S128"
target triple = "x86_64-pc-linux-gnu"

%class.LogTagSet = type { ptr, i64, [5 x i32], [4 x i8], %class.LogOutputList, %class.LogDecorators, ptr }
%class.LogOutputList = type <{ [6 x ptr], i32, [4 x i8] }>
%class.LogDecorators = type { i32 }
%class.G1HeapRegion = type { ptr, ptr, ptr, ptr, ptr, ptr, i32, %class.G1HeapRegionType, ptr, i32, ptr, ptr, ptr, i64, i32, ptr, i32, i32, i64 }
%class.G1HeapRegionType = type { i32 }
%class.G1HeapRegionClosure.base = type <{ ptr, i8 }>
%class.G1PrintRegionLivenessInfoClosure = type { %class.G1HeapRegionClosure.base, i64, i64, i64, i64, i64 }
%class.FormatBuffer = type { %class.FormatBufferBase, [16 x i8] }
%class.FormatBufferBase = type { ptr }
%class.G1HeapRegionRemSet = type <{ %class.G1CodeRootSet, %class.G1CardSetMemoryManager, %class.G1CardSet, ptr, i32, [4 x i8] }>
%class.G1CodeRootSet = type { ptr }
%class.G1CardSetMemoryManager = type { ptr, ptr, ptr }
%class.G1CardSet = type { ptr, ptr, ptr, ptr, i64 }

@.str.95 = private unnamed_addr constant [1 x i8] zeroinitializer, align 1
@.str.98 = private unnamed_addr constant [2 x i8] c"-\00", align 1
@.str.99 = private unnamed_addr constant [7 x i8] c"%14.1f\00", align 1
@.str.100 = private unnamed_addr constant [66 x i8] c"###   %-4s 0x%016lx-0x%016lx  %9lu  %9lu  %14s  %9lu   %-5s  %9lu\00", align 1
@_ZN16LogTagSetMappingILN6LogTag4typeE49ELS1_73ELS1_0ELS1_0ELS1_0ELS1_0EE7_tagsetE = linkonce_odr hidden global %class.LogTagSet zeroinitializer, comdat, align 8
@_ZN18G1HeapRegionRemSet20_short_state_stringsE = external global [0 x ptr], align 8

; Function Attrs: mustprogress nounwind uwtable
define linkonce_odr hidden noundef i64 @_Z13pointer_deltaPVKvS0_m(ptr noundef %0, ptr noundef %1, i64 noundef %2) #1 comdat {
  %4 = alloca ptr, align 8
  %5 = alloca ptr, align 8
  %6 = alloca i64, align 8
  store ptr %0, ptr %4, align 8
  store ptr %1, ptr %5, align 8
  store i64 %2, ptr %6, align 8
  %7 = load ptr, ptr %4, align 8
  %8 = ptrtoint ptr %7 to i64
  %9 = load ptr, ptr %5, align 8
  %10 = ptrtoint ptr %9 to i64
  %11 = sub i64 %8, %10
  %12 = load i64, ptr %6, align 8
  %13 = udiv i64 %11, %12
  ret i64 %13
}

; Function Attrs: mustprogress nounwind uwtable
define linkonce_odr hidden noundef zeroext i1 @_ZNK13LogOutputList8is_levelEN8LogLevel4typeE(ptr noundef nonnull align 8 dereferenceable(52) %0, i32 noundef %1) #1 comdat align 2 {
  %3 = alloca ptr, align 8
  %4 = alloca i32, align 4
  store ptr %0, ptr %3, align 8
  store i32 %1, ptr %4, align 4
  %5 = load ptr, ptr %3, align 8
  %6 = getelementptr inbounds %class.LogOutputList, ptr %5, i32 0, i32 0
  %7 = load i32, ptr %4, align 4
  %8 = zext i32 %7 to i64
  %9 = getelementptr inbounds [6 x ptr], ptr %6, i64 0, i64 %8
  %10 = load volatile ptr, ptr %9, align 8
  %11 = icmp ne ptr %10, null
  ret i1 %11
}

; Function Attrs: mustprogress nounwind uwtable
define linkonce_odr hidden noundef i64 @_ZNK12G1HeapRegion13garbage_bytesEv(ptr noundef nonnull align 8 dereferenceable(136) %0) #1 comdat align 2 {
  %2 = alloca ptr, align 8
  store ptr %0, ptr %2, align 8
  %3 = load ptr, ptr %2, align 8
  %4 = getelementptr inbounds %class.G1HeapRegion, ptr %3, i32 0, i32 13
  %5 = load i64, ptr %4, align 8
  ret i64 %5
}

; Function Attrs: mustprogress nounwind uwtable
define linkonce_odr hidden noundef ptr @_ZNK12G1HeapRegion3topEv(ptr noundef nonnull align 8 dereferenceable(136) %0) #1 comdat align 2 {
  %2 = alloca ptr, align 8
  store ptr %0, ptr %2, align 8
  %3 = load ptr, ptr %2, align 8
  %4 = getelementptr inbounds %class.G1HeapRegion, ptr %3, i32 0, i32 2
  %5 = load volatile ptr, ptr %4, align 8
  ret ptr %5
}

; Function Attrs: mustprogress nounwind uwtable
define linkonce_odr hidden noundef i64 @_Z9byte_sizePvS_(ptr noundef %0, ptr noundef %1) #1 comdat {
  %3 = alloca ptr, align 8
  %4 = alloca ptr, align 8
  store ptr %0, ptr %3, align 8
  store ptr %1, ptr %4, align 8
  %5 = load ptr, ptr %4, align 8
  %6 = load ptr, ptr %3, align 8
  %7 = call noundef i64 @_Z13pointer_deltaPVKvS0_m(ptr noundef %5, ptr noundef %6, i64 noundef 1)
  ret i64 %7
}

; Function Attrs: mustprogress nounwind uwtable
define linkonce_odr hidden noundef zeroext i1 @_ZNK9LogTagSet8is_levelEN8LogLevel4typeE(ptr noundef nonnull align 8 dereferenceable(112) %0, i32 noundef %1) #1 comdat align 2 {
  %3 = alloca ptr, align 8
  %4 = alloca i32, align 4
  store ptr %0, ptr %3, align 8
  store i32 %1, ptr %4, align 4
  %5 = load ptr, ptr %3, align 8
  %6 = getelementptr inbounds %class.LogTagSet, ptr %5, i32 0, i32 4
  %7 = load i32, ptr %4, align 4
  %8 = call noundef zeroext i1 @_ZNK13LogOutputList8is_levelEN8LogLevel4typeE(ptr noundef nonnull align 8 dereferenceable(52) %6, i32 noundef %7)
  ret i1 %8
}

; Function Attrs: mustprogress nounwind uwtable
define linkonce_odr hidden noundef nonnull align 8 dereferenceable(112) ptr @_ZN16LogTagSetMappingILN6LogTag4typeE49ELS1_73ELS1_0ELS1_0ELS1_0ELS1_0EE6tagsetEv() #1 comdat align 2 {
  ret ptr @_ZN16LogTagSetMappingILN6LogTag4typeE49ELS1_73ELS1_0ELS1_0ELS1_0ELS1_0EE7_tagsetE
}

; Function Attrs: mustprogress nounwind uwtable
define linkonce_odr hidden noundef ptr @_ZN12FormatBufferILm16EE6bufferEv(ptr noundef nonnull align 8 dereferenceable(24) %0) #1 comdat align 2 {
  %2 = alloca ptr, align 8
  store ptr %0, ptr %2, align 8
  %3 = load ptr, ptr %2, align 8
  %4 = getelementptr inbounds %class.FormatBufferBase, ptr %3, i32 0, i32 0
  %5 = load ptr, ptr %4, align 8
  ret ptr %5
}

; Function Attrs: mustprogress nounwind uwtable
define linkonce_odr hidden noundef i64 @_Z3p2iPVKv(ptr noundef %0) #1 comdat {
  %2 = alloca ptr, align 8
  store ptr %0, ptr %2, align 8
  %3 = load ptr, ptr %2, align 8
  %4 = ptrtoint ptr %3 to i64
  ret i64 %4
}

; Function Attrs: mustprogress nounwind uwtable
define linkonce_odr hidden noundef ptr @_ZNK18G1HeapRegionRemSet19get_short_state_strEv(ptr noundef nonnull align 8 dereferenceable(84) %0) #1 comdat align 2 {
  %2 = alloca ptr, align 8
  store ptr %0, ptr %2, align 8
  %3 = load ptr, ptr %2, align 8
  %4 = getelementptr inbounds %class.G1HeapRegionRemSet, ptr %3, i32 0, i32 4
  %5 = load i32, ptr %4, align 8
  %6 = zext i32 %5 to i64
  %7 = getelementptr inbounds [0 x ptr], ptr @_ZN18G1HeapRegionRemSet20_short_state_stringsE, i64 0, i64 %6
  %8 = load ptr, ptr %7, align 8
  ret ptr %8
}

; Function Attrs: mustprogress nounwind uwtable
define linkonce_odr hidden noundef i64 @_ZN18G1HeapRegionRemSet8mem_sizeEv(ptr noundef nonnull align 8 dereferenceable(84) %0) #1 comdat align 2 {
  %2 = alloca ptr, align 8
  store ptr %0, ptr %2, align 8
  %3 = load ptr, ptr %2, align 8
  %4 = getelementptr inbounds %class.G1HeapRegionRemSet, ptr %3, i32 0, i32 2
  %5 = call noundef i64 @_ZNK9G1CardSet8mem_sizeEv(ptr noundef nonnull align 8 dereferenceable(40) %4)
  %6 = add i64 %5, 48
  %7 = call noundef i64 @_ZN18G1HeapRegionRemSet19code_roots_mem_sizeEv(ptr noundef nonnull align 8 dereferenceable(84) %3)
  %8 = add i64 %6, %7
  ret i64 %8
}

; Function Attrs: mustprogress nounwind uwtable
define linkonce_odr hidden noundef ptr @_ZNK12G1HeapRegion7rem_setEv(ptr noundef nonnull align 8 dereferenceable(136) %0) #1 comdat align 2 {
  %2 = alloca ptr, align 8
  store ptr %0, ptr %2, align 8
  %3 = load ptr, ptr %2, align 8
  %4 = getelementptr inbounds %class.G1HeapRegion, ptr %3, i32 0, i32 5
  %5 = load ptr, ptr %4, align 8
  ret ptr %5
}

; Function Attrs: mustprogress nounwind uwtable
define linkonce_odr hidden noundef i64 @_ZNK12G1HeapRegion10live_bytesEv(ptr noundef nonnull align 8 dereferenceable(136) %0) #1 comdat align 2 {
  %2 = alloca ptr, align 8
  store ptr %0, ptr %2, align 8
  %3 = load ptr, ptr %2, align 8
  %4 = call noundef i64 @_ZNK12G1HeapRegion4usedEv(ptr noundef nonnull align 8 dereferenceable(136) %3)
  %5 = call noundef i64 @_ZNK12G1HeapRegion13garbage_bytesEv(ptr noundef nonnull align 8 dereferenceable(136) %3)
  %6 = sub i64 %4, %5
  ret i64 %6
}

; Function Attrs: mustprogress nounwind uwtable
define linkonce_odr hidden noundef i64 @_ZNK12G1HeapRegion4usedEv(ptr noundef nonnull align 8 dereferenceable(136) %0) #1 comdat align 2 {
  %2 = alloca ptr, align 8
  store ptr %0, ptr %2, align 8
  %3 = load ptr, ptr %2, align 8
  %4 = call noundef ptr @_ZNK12G1HeapRegion6bottomEv(ptr noundef nonnull align 8 dereferenceable(136) %3)
  %5 = call noundef ptr @_ZNK12G1HeapRegion3topEv(ptr noundef nonnull align 8 dereferenceable(136) %3)
  %6 = call noundef i64 @_Z9byte_sizePvS_(ptr noundef %4, ptr noundef %5)
  ret i64 %6
}

; Function Attrs: mustprogress nounwind uwtable
define linkonce_odr hidden noundef i64 @_ZNK12G1HeapRegion8capacityEv(ptr noundef nonnull align 8 dereferenceable(136) %0) #1 comdat align 2 {
  %2 = alloca ptr, align 8
  store ptr %0, ptr %2, align 8
  %3 = load ptr, ptr %2, align 8
  %4 = call noundef ptr @_ZNK12G1HeapRegion6bottomEv(ptr noundef nonnull align 8 dereferenceable(136) %3)
  %5 = call noundef ptr @_ZNK12G1HeapRegion3endEv(ptr noundef nonnull align 8 dereferenceable(136) %3)
  %6 = call noundef i64 @_Z9byte_sizePvS_(ptr noundef %4, ptr noundef %5)
  ret i64 %6
}

; Function Attrs: mustprogress nounwind uwtable
define linkonce_odr hidden noundef ptr @_ZNK12G1HeapRegion3endEv(ptr noundef nonnull align 8 dereferenceable(136) %0) #1 comdat align 2 {
  %2 = alloca ptr, align 8
  store ptr %0, ptr %2, align 8
  %3 = load ptr, ptr %2, align 8
  %4 = getelementptr inbounds %class.G1HeapRegion, ptr %3, i32 0, i32 1
  %5 = load ptr, ptr %4, align 8
  ret ptr %5
}

; Function Attrs: mustprogress nounwind uwtable
define linkonce_odr hidden noundef ptr @_ZNK12G1HeapRegion6bottomEv(ptr noundef nonnull align 8 dereferenceable(136) %0) #1 comdat align 2 {
  %2 = alloca ptr, align 8
  store ptr %0, ptr %2, align 8
  %3 = load ptr, ptr %2, align 8
  %4 = getelementptr inbounds %class.G1HeapRegion, ptr %3, i32 0, i32 0
  %5 = load ptr, ptr %4, align 8
  ret ptr %5
}

; Function Attrs: mustprogress nounwind uwtable
define linkonce_odr hidden noundef ptr @_ZNK12G1HeapRegion12get_type_strEv(ptr noundef nonnull align 8 dereferenceable(136) %0) #1 comdat align 2 {
  %2 = alloca ptr, align 8
  store ptr %0, ptr %2, align 8
  %3 = load ptr, ptr %2, align 8
  %4 = getelementptr inbounds %class.G1HeapRegion, ptr %3, i32 0, i32 7
  %5 = call noundef ptr @_ZNK16G1HeapRegionType7get_strEv(ptr noundef nonnull align 4 dereferenceable(4) %4)
  ret ptr %5
}

; Function Attrs: mustprogress nounwind uwtable
define linkonce_odr hidden noundef zeroext i1 @_ZN7LogImplILN6LogTag4typeE49ELS1_73ELS1_0ELS1_0ELS1_0ELS1_0EE8is_levelEN8LogLevel4typeE(i32 noundef %0) #1 comdat align 2 {
  %2 = alloca i32, align 4
  store i32 %0, ptr %2, align 4
  %3 = call noundef nonnull align 8 dereferenceable(112) ptr @_ZN16LogTagSetMappingILN6LogTag4typeE49ELS1_73ELS1_0ELS1_0ELS1_0ELS1_0EE6tagsetEv()
  %4 = load i32, ptr %2, align 4
  %5 = call noundef zeroext i1 @_ZNK9LogTagSet8is_levelEN8LogLevel4typeE(ptr noundef nonnull align 8 dereferenceable(112) %3, i32 noundef %4)
  ret i1 %5
}

; Function Attrs: mustprogress nounwind uwtable
define hidden noundef zeroext i1 @_ZN32G1PrintRegionLivenessInfoClosure14do_heap_regionEP12G1HeapRegion(ptr noundef nonnull align 8 dereferenceable(56) %0, ptr noundef %1) unnamed_addr #1 align 2 {
  %3 = alloca i1, align 1
  %4 = alloca ptr, align 8
  %5 = alloca ptr, align 8
  %6 = alloca ptr, align 8
  %7 = alloca ptr, align 8
  %8 = alloca ptr, align 8
  %9 = alloca i64, align 8
  %10 = alloca i64, align 8
  %11 = alloca i64, align 8
  %12 = alloca double, align 8
  %13 = alloca i64, align 8
  %14 = alloca i64, align 8
  %15 = alloca ptr, align 8
  %16 = alloca %class.FormatBuffer, align 8
  store ptr %0, ptr %4, align 8
  store ptr %1, ptr %5, align 8
  %17 = load ptr, ptr %4, align 8
  %18 = call noundef zeroext i1 @_ZN7LogImplILN6LogTag4typeE49ELS1_73ELS1_0ELS1_0ELS1_0ELS1_0EE8is_levelEN8LogLevel4typeE(i32 noundef 1)
  br i1 %18, label %20, label %19

19:                                               ; preds = %2
  store i1 false, ptr %3, align 1
  br label %85

20:                                               ; preds = %2
  %21 = load ptr, ptr %5, align 8
  %22 = call noundef ptr @_ZNK12G1HeapRegion12get_type_strEv(ptr noundef nonnull align 8 dereferenceable(136) %21)
  store ptr %22, ptr %6, align 8
  %23 = load ptr, ptr %5, align 8
  %24 = call noundef ptr @_ZNK12G1HeapRegion6bottomEv(ptr noundef nonnull align 8 dereferenceable(136) %23)
  store ptr %24, ptr %7, align 8
  %25 = load ptr, ptr %5, align 8
  %26 = call noundef ptr @_ZNK12G1HeapRegion3endEv(ptr noundef nonnull align 8 dereferenceable(136) %25)
  store ptr %26, ptr %8, align 8
  %27 = load ptr, ptr %5, align 8
  %28 = call noundef i64 @_ZNK12G1HeapRegion8capacityEv(ptr noundef nonnull align 8 dereferenceable(136) %27)
  store i64 %28, ptr %9, align 8
  %29 = load ptr, ptr %5, align 8
  %30 = call noundef i64 @_ZNK12G1HeapRegion4usedEv(ptr noundef nonnull align 8 dereferenceable(136) %29)
  store i64 %30, ptr %10, align 8
  %31 = load ptr, ptr %5, align 8
  %32 = call noundef i64 @_ZNK12G1HeapRegion10live_bytesEv(ptr noundef nonnull align 8 dereferenceable(136) %31)
  store i64 %32, ptr %11, align 8
  %33 = load ptr, ptr %5, align 8
  %34 = call noundef double @_ZN12G1HeapRegion18calc_gc_efficiencyEv(ptr noundef nonnull align 8 dereferenceable(136) %33)
  store double %34, ptr %12, align 8
  %35 = load ptr, ptr %5, align 8
  %36 = call noundef ptr @_ZNK12G1HeapRegion7rem_setEv(ptr noundef nonnull align 8 dereferenceable(136) %35)
  %37 = call noundef i64 @_ZN18G1HeapRegionRemSet8mem_sizeEv(ptr noundef nonnull align 8 dereferenceable(84) %36)
  store i64 %37, ptr %13, align 8
  %38 = load ptr, ptr %5, align 8
  %39 = call noundef ptr @_ZNK12G1HeapRegion7rem_setEv(ptr noundef nonnull align 8 dereferenceable(136) %38)
  %40 = call noundef i64 @_ZN18G1HeapRegionRemSet19code_roots_mem_sizeEv(ptr noundef nonnull align 8 dereferenceable(84) %39)
  store i64 %40, ptr %14, align 8
  %41 = load ptr, ptr %5, align 8
  %42 = call noundef ptr @_ZNK12G1HeapRegion7rem_setEv(ptr noundef nonnull align 8 dereferenceable(136) %41)
  %43 = call noundef ptr @_ZNK18G1HeapRegionRemSet19get_short_state_strEv(ptr noundef nonnull align 8 dereferenceable(84) %42)
  store ptr %43, ptr %15, align 8
  call void (ptr, ptr, ...) @_ZN12FormatBufferILm16EEC2EPKcz(ptr noundef nonnull align 8 dereferenceable(24) %16, ptr noundef @.str.95)
  %44 = load i64, ptr %10, align 8
  %45 = getelementptr inbounds %class.G1PrintRegionLivenessInfoClosure, ptr %17, i32 0, i32 1
  %46 = load i64, ptr %45, align 8
  %47 = add i64 %46, %44
  store i64 %47, ptr %45, align 8
  %48 = load i64, ptr %9, align 8
  %49 = getelementptr inbounds %class.G1PrintRegionLivenessInfoClosure, ptr %17, i32 0, i32 2
  %50 = load i64, ptr %49, align 8
  %51 = add i64 %50, %48
  store i64 %51, ptr %49, align 8
  %52 = load i64, ptr %11, align 8
  %53 = getelementptr inbounds %class.G1PrintRegionLivenessInfoClosure, ptr %17, i32 0, i32 3
  %54 = load i64, ptr %53, align 8
  %55 = add i64 %54, %52
  store i64 %55, ptr %53, align 8
  %56 = load i64, ptr %13, align 8
  %57 = getelementptr inbounds %class.G1PrintRegionLivenessInfoClosure, ptr %17, i32 0, i32 4
  %58 = load i64, ptr %57, align 8
  %59 = add i64 %58, %56
  store i64 %59, ptr %57, align 8
  %60 = load i64, ptr %14, align 8
  %61 = getelementptr inbounds %class.G1PrintRegionLivenessInfoClosure, ptr %17, i32 0, i32 5
  %62 = load i64, ptr %61, align 8
  %63 = add i64 %62, %60
  store i64 %63, ptr %61, align 8
  %64 = load double, ptr %12, align 8
  %65 = fcmp olt double %64, 0.000000e+00
  br i1 %65, label %66, label %67

66:                                               ; preds = %20
  call void (ptr, ptr, ...) @_ZN12FormatBufferILm16EE6appendEPKcz(ptr noundef nonnull align 8 dereferenceable(24) %16, ptr noundef @.str.98)
  br label %69

67:                                               ; preds = %20
  %68 = load double, ptr %12, align 8
  call void (ptr, ptr, ...) @_ZN12FormatBufferILm16EE6appendEPKcz(ptr noundef nonnull align 8 dereferenceable(24) %16, ptr noundef @.str.99, double noundef %68)
  br label %69

69:                                               ; preds = %67, %66
  %70 = call noundef zeroext i1 @_ZN7LogImplILN6LogTag4typeE49ELS1_73ELS1_0ELS1_0ELS1_0ELS1_0EE8is_levelEN8LogLevel4typeE(i32 noundef 1)
  br i1 %70, label %72, label %71

71:                                               ; preds = %69
  br label %84

72:                                               ; preds = %69
  %73 = load ptr, ptr %6, align 8
  %74 = load ptr, ptr %7, align 8
  %75 = call noundef i64 @_Z3p2iPVKv(ptr noundef %74)
  %76 = load ptr, ptr %8, align 8
  %77 = call noundef i64 @_Z3p2iPVKv(ptr noundef %76)
  %78 = load i64, ptr %10, align 8
  %79 = load i64, ptr %11, align 8
  %80 = call noundef ptr @_ZN12FormatBufferILm16EE6bufferEv(ptr noundef nonnull align 8 dereferenceable(24) %16)
  %81 = load i64, ptr %13, align 8
  %82 = load ptr, ptr %15, align 8
  %83 = load i64, ptr %14, align 8
  call void (ptr, ...) @_ZN7LogImplILN6LogTag4typeE49ELS1_73ELS1_0ELS1_0ELS1_0ELS1_0EE5writeILN8LogLevel4typeE1EEEvPKcz(ptr noundef @.str.100, ptr noundef %73, i64 noundef %75, i64 noundef %77, i64 noundef %78, i64 noundef %79, ptr noundef %80, i64 noundef %81, ptr noundef %82, i64 noundef %83)
  br label %84

84:                                               ; preds = %72, %71
  store i1 false, ptr %3, align 1
  br label %85

85:                                               ; preds = %84, %19
  %86 = load i1, ptr %3, align 1
  ret i1 %86
}