; Function Attrs: mustprogress nounwind uwtable
define hidden noundef zeroext i1 @_ZN32G1PrintRegionLivenessInfoClosure14do_heap_regionEP12G1HeapRegion(ptr nocapture noundef nonnull align 8 dereferenceable(56) %0, ptr noundef %1) unnamed_addr #0 align 2 {
  %3 = alloca %class.FormatBuffer, align 8
  %4 = load volatile ptr, ptr getelementptr inbounds (i8, ptr @_ZN16LogTagSetMappingILN6LogTag4typeE49ELS1_73ELS1_0ELS1_0ELS1_0ELS1_0EE7_tagsetE, i64 48), align 8
  %.not = icmp eq ptr %4, null
  br i1 %.not, label %62, label %5

5:                                                ; preds = %2
  %6 = getelementptr inbounds i8, ptr %1, i64 52
  %7 = tail call noundef ptr @_ZNK16G1HeapRegionType7get_strEv(ptr noundef nonnull align 4 dereferenceable(4) %6) #22
  %8 = load ptr, ptr %1, align 8
  %9 = getelementptr inbounds i8, ptr %1, i64 8
  %10 = load ptr, ptr %9, align 8
  %11 = ptrtoint ptr %10 to i64
  %12 = ptrtoint ptr %8 to i64
  %13 = sub i64 %11, %12
  %14 = getelementptr inbounds i8, ptr %1, i64 16
  %15 = load volatile ptr, ptr %14, align 8
  %16 = ptrtoint ptr %15 to i64
  %17 = sub i64 %16, %12
  %18 = load volatile ptr, ptr %14, align 8
  %19 = ptrtoint ptr %18 to i64
  %20 = getelementptr inbounds i8, ptr %1, i64 96
  %21 = load i64, ptr %20, align 8
  %22 = add i64 %21, %12
  %23 = sub i64 %19, %22
  %24 = tail call noundef double @_ZN12G1HeapRegion18calc_gc_efficiencyEv(ptr noundef nonnull align 8 dereferenceable(136) %1) #22
  %25 = getelementptr inbounds i8, ptr %1, i64 40
  %26 = load ptr, ptr %25, align 8
  %27 = getelementptr inbounds i8, ptr %26, i64 32
  %28 = tail call noundef i64 @_ZNK9G1CardSet8mem_sizeEv(ptr noundef nonnull align 8 dereferenceable(40) %27) #22
  %29 = add i64 %28, 48
  %30 = tail call noundef i64 @_ZN18G1HeapRegionRemSet19code_roots_mem_sizeEv(ptr noundef nonnull align 8 dereferenceable(84) %26) #22
  %31 = add i64 %29, %30
  %32 = load ptr, ptr %25, align 8
  %33 = tail call noundef i64 @_ZN18G1HeapRegionRemSet19code_roots_mem_sizeEv(ptr noundef nonnull align 8 dereferenceable(84) %32) #22
  %34 = load ptr, ptr %25, align 8
  %35 = getelementptr inbounds i8, ptr %34, i64 80
  %36 = load i32, ptr %35, align 8
  %37 = zext i32 %36 to i64
  %38 = getelementptr inbounds [0 x ptr], ptr @_ZN18G1HeapRegionRemSet20_short_state_stringsE, i64 0, i64 %37
  %39 = load ptr, ptr %38, align 8
  call void (ptr, ptr, ...) @_ZN12FormatBufferILm16EEC2EPKcz(ptr noundef nonnull align 8 dereferenceable(24) %3, ptr noundef nonnull @.str.95)
  %40 = getelementptr inbounds i8, ptr %0, i64 16
  %41 = load i64, ptr %40, align 8
  %42 = add i64 %41, %17
  store i64 %42, ptr %40, align 8
  %43 = getelementptr inbounds i8, ptr %0, i64 24
  %44 = load i64, ptr %43, align 8
  %45 = add i64 %13, %44
  store i64 %45, ptr %43, align 8
  %46 = getelementptr inbounds i8, ptr %0, i64 32
  %47 = load i64, ptr %46, align 8
  %48 = add i64 %47, %23
  store i64 %48, ptr %46, align 8
  %49 = getelementptr inbounds i8, ptr %0, i64 40
  %50 = load i64, ptr %49, align 8
  %51 = add i64 %50, %31
  store i64 %51, ptr %49, align 8
  %52 = getelementptr inbounds i8, ptr %0, i64 48
  %53 = load i64, ptr %52, align 8
  %54 = add i64 %53, %33
  store i64 %54, ptr %52, align 8
  %55 = fcmp olt double %24, 0.000000e+00
  br i1 %55, label %56, label %57

56:                                               ; preds = %5
  call void (ptr, ptr, ...) @_ZN12FormatBufferILm16EE6appendEPKcz(ptr noundef nonnull align 8 dereferenceable(24) %3, ptr noundef nonnull @.str.98)
  br label %58

57:                                               ; preds = %5
  call void (ptr, ptr, ...) @_ZN12FormatBufferILm16EE6appendEPKcz(ptr noundef nonnull align 8 dereferenceable(24) %3, ptr noundef nonnull @.str.99, double noundef %24)
  br label %58

58:                                               ; preds = %57, %56
  %59 = load volatile ptr, ptr getelementptr inbounds (i8, ptr @_ZN16LogTagSetMappingILN6LogTag4typeE49ELS1_73ELS1_0ELS1_0ELS1_0ELS1_0EE7_tagsetE, i64 48), align 8
  %.not26 = icmp eq ptr %59, null
  br i1 %.not26, label %62, label %60

60:                                               ; preds = %58
  %61 = load ptr, ptr %3, align 8
  call void (ptr, ...) @_ZN7LogImplILN6LogTag4typeE49ELS1_73ELS1_0ELS1_0ELS1_0ELS1_0EE5writeILN8LogLevel4typeE1EEEvPKcz(ptr noundef nonnull @.str.100, ptr noundef %7, i64 noundef %12, i64 noundef %11, i64 noundef %17, i64 noundef %23, ptr noundef %61, i64 noundef %31, ptr noundef %39, i64 noundef %33)
  br label %62

62:                                               ; preds = %60, %58, %2
  ret i1 false
}